#include <math.h>
#include <stdio.h>
#include <stdlib.h>
#include <string.h>
#include <iostream>
using namespace std;

//********************************
//*???5.??2?N?? **
//*?????? 1300017623 **
//*???2013.11.13  **
//********************************
int main()
{
	int n, flag = 0, tag = 0;
	int a[100] = {1};
	cin >> n;
	for (; n > 0; n--)
		for (int i = 0; i < 100; i++)
		{
			a[i] *= 2;
			if (flag)
				a[i]++;
			flag = 0;
			if (a[i] > 9)
			{
				flag = 1;
				a[i] -= 10;
			}
		}
	for (int i = 99; i >= 0; i--)
	{
		if (a[i] != 0 || tag)
		{
			tag = 1;
			cout << a[i];
		}
	}
		return 0;
}